target datalayout = "e-m:e-p270:32:32-p271:32:32-p272:64:64-i64:64-i128:128-f80:128-n8:16:32:64-S128"
target triple = "x86_64-pc-linux-gnu"

%struct.reftable_buf = type { i64, i64, ptr }
%struct.reftable_write_options = type { i8, i32, i8, i16, i32, i32, i8, i8, i64, ptr, ptr, ptr }
%struct.reftable_stack = type { %struct.stat, ptr, i32, ptr, %struct.reftable_write_options, ptr, i64, ptr, %struct.reftable_compaction_stats }
%struct.stat = type { i64, i64, i64, i32, i32, i32, i32, i64, i64, i64, i64, %struct.timespec, %struct.timespec, %struct.timespec, [3 x i64] }
%struct.timespec = type { i64, i64 }
%struct.reftable_compaction_stats = type { i64, i64, i32, i32 }

@.str = private unnamed_addr constant [13 x i8] c"/tables.list\00", align 1

; Function Attrs: nounwind uwtable
define dso_local i32 @reftable_new_stack(ptr noundef %0, ptr noundef %1, ptr noundef %2) #0 {
  %4 = alloca ptr, align 8
  %5 = alloca ptr, align 8
  %6 = alloca ptr, align 8
  %7 = alloca %struct.reftable_buf, align 8
  %8 = alloca %struct.reftable_write_options, align 8
  %9 = alloca ptr, align 8
  %10 = alloca i32, align 4
  store ptr %0, ptr %4, align 8, !tbaa !4
  store ptr %1, ptr %5, align 8, !tbaa !9
  store ptr %2, ptr %6, align 8, !tbaa !11
  call void @llvm.lifetime.start.p0(i64 24, ptr %7) #10
  call void @llvm.memset.p0.i64(ptr align 8 %7, i8 0, i64 24, i1 false)
  call void @llvm.lifetime.start.p0(i64 56, ptr %8) #10
  call void @llvm.memset.p0.i64(ptr align 8 %8, i8 0, i64 56, i1 false)
  call void @llvm.lifetime.start.p0(i64 8, ptr %9) #10
  call void @llvm.lifetime.start.p0(i64 4, ptr %10) #10
  %11 = call ptr @reftable_calloc(i64 noundef 1, i64 noundef 272)
  store ptr %11, ptr %9, align 8, !tbaa !13
  %12 = load ptr, ptr %9, align 8, !tbaa !13
  %13 = icmp ne ptr %12, null
  br i1 %13, label %15, label %14

14:                                               ; preds = %3
  store i32 -13, ptr %10, align 4, !tbaa !15
  br label %61

15:                                               ; preds = %3
  %16 = load ptr, ptr %6, align 8, !tbaa !11
  %17 = icmp ne ptr %16, null
  br i1 %17, label %18, label %20

18:                                               ; preds = %15
  %19 = load ptr, ptr %6, align 8, !tbaa !11
  call void @llvm.memcpy.p0.p0.i64(ptr align 8 %8, ptr align 8 %19, i64 56, i1 false), !tbaa.struct !17
  br label %20

20:                                               ; preds = %18, %15
  %21 = getelementptr inbounds nuw %struct.reftable_write_options, ptr %8, i32 0, i32 4
  %22 = load i32, ptr %21, align 4, !tbaa !24
  %23 = icmp eq i32 %22, 0
  br i1 %23, label %24, label %26

24:                                               ; preds = %20
  %25 = getelementptr inbounds nuw %struct.reftable_write_options, ptr %8, i32 0, i32 4
  store i32 89, ptr %25, align 4, !tbaa !24
  br label %26

26:                                               ; preds = %24, %20
  %27 = load ptr, ptr %4, align 8, !tbaa !4
  store ptr null, ptr %27, align 8, !tbaa !13
  call void @reftable_buf_reset(ptr noundef %7)
  %28 = load ptr, ptr %5, align 8, !tbaa !9
  %29 = call i32 @reftable_buf_addstr(ptr noundef %7, ptr noundef %28)
  store i32 %29, ptr %10, align 4, !tbaa !15
  %30 = icmp slt i32 %29, 0
  br i1 %30, label %34, label %31

31:                                               ; preds = %26
  %32 = call i32 @reftable_buf_addstr(ptr noundef %7, ptr noundef @.str)
  store i32 %32, ptr %10, align 4, !tbaa !15
  %33 = icmp slt i32 %32, 0
  br i1 %33, label %34, label %35

34:                                               ; preds = %31, %26
  br label %61

35:                                               ; preds = %31
  %36 = call ptr @reftable_buf_detach(ptr noundef %7)
  %37 = load ptr, ptr %9, align 8, !tbaa !13
  %38 = getelementptr inbounds nuw %struct.reftable_stack, ptr %37, i32 0, i32 1
  store ptr %36, ptr %38, align 8, !tbaa !26
  %39 = load ptr, ptr %9, align 8, !tbaa !13
  %40 = getelementptr inbounds nuw %struct.reftable_stack, ptr %39, i32 0, i32 2
  store i32 -1, ptr %40, align 8, !tbaa !33
  %41 = load ptr, ptr %9, align 8, !tbaa !13
  %42 = getelementptr inbounds nuw %struct.reftable_stack, ptr %41, i32 0, i32 4
  call void @llvm.memcpy.p0.p0.i64(ptr align 8 %42, ptr align 8 %8, i64 56, i1 false), !tbaa.struct !17
  %43 = load ptr, ptr %5, align 8, !tbaa !9
  %44 = call ptr @reftable_strdup(ptr noundef %43)
  %45 = load ptr, ptr %9, align 8, !tbaa !13
  %46 = getelementptr inbounds nuw %struct.reftable_stack, ptr %45, i32 0, i32 3
  store ptr %44, ptr %46, align 8, !tbaa !34
  %47 = load ptr, ptr %9, align 8, !tbaa !13
  %48 = getelementptr inbounds nuw %struct.reftable_stack, ptr %47, i32 0, i32 3
  %49 = load ptr, ptr %48, align 8, !tbaa !34
  %50 = icmp ne ptr %49, null
  br i1 %50, label %52, label %51

51:                                               ; preds = %35
  store i32 -13, ptr %10, align 4, !tbaa !15
  br label %61

52:                                               ; preds = %35
  %53 = load ptr, ptr %9, align 8, !tbaa !13
  %54 = call i32 @reftable_stack_reload_maybe_reuse(ptr noundef %53, i32 noundef 1)
  store i32 %54, ptr %10, align 4, !tbaa !15
  %55 = load i32, ptr %10, align 4, !tbaa !15
  %56 = icmp slt i32 %55, 0
  br i1 %56, label %57, label %58

57:                                               ; preds = %52
  br label %61

58:                                               ; preds = %52
  %59 = load ptr, ptr %9, align 8, !tbaa !13
  %60 = load ptr, ptr %4, align 8, !tbaa !4
  store ptr %59, ptr %60, align 8, !tbaa !13
  store i32 0, ptr %10, align 4, !tbaa !15
  br label %61

61:                                               ; preds = %58, %57, %51, %34, %14
  %62 = load i32, ptr %10, align 4, !tbaa !15
  %63 = icmp slt i32 %62, 0
  br i1 %63, label %64, label %66

64:                                               ; preds = %61
  %65 = load ptr, ptr %9, align 8, !tbaa !13
  call void @reftable_stack_destroy(ptr noundef %65)
  br label %66

66:                                               ; preds = %64, %61
  %67 = load i32, ptr %10, align 4, !tbaa !15
  call void @llvm.lifetime.end.p0(i64 4, ptr %10) #10
  call void @llvm.lifetime.end.p0(i64 8, ptr %9) #10
  call void @llvm.lifetime.end.p0(i64 56, ptr %8) #10
  call void @llvm.lifetime.end.p0(i64 24, ptr %7) #10
  ret i32 %67
}