; Function Attrs: nounwind uwtable
define dso_local range(i32 -2147483648, 1) i32 @reftable_new_stack(ptr noundef writeonly captures(none) %0, ptr noundef %1, ptr noundef readonly %2) local_unnamed_addr #0 {
  %4 = alloca %struct.reftable_buf, align 8
  %.sroa.0 = alloca { i8, i32, i8, i16 }, align 8
  %.sroa.7 = alloca { i32, i8, i8, i64, ptr, ptr, ptr }, align 8
  call void @llvm.lifetime.start.p0(i64 24, ptr nonnull %4) #16
  call void @llvm.memset.p0.i64(ptr noundef nonnull align 8 dereferenceable(24) %4, i8 0, i64 24, i1 false)
  call void @llvm.lifetime.start.p0(i64 12, ptr nonnull %.sroa.0)
  call void @llvm.lifetime.start.p0(i64 40, ptr nonnull %.sroa.7)
  call void @llvm.memset.p0.i64(ptr noundef nonnull align 8 dereferenceable(12) %.sroa.0, i8 0, i64 12, i1 false)
  call void @llvm.memset.p0.i64(ptr noundef nonnull align 8 dereferenceable(40) %.sroa.7, i8 0, i64 40, i1 false)
  %5 = tail call ptr @reftable_calloc(i64 noundef 1, i64 noundef 272) #16
  %.not = icmp eq ptr %5, null
  br i1 %.not, label %27, label %6

6:                                                ; preds = %3
  %.not26 = icmp eq ptr %2, null
  br i1 %.not26, label %.thread, label %7

7:                                                ; preds = %6
  call void @llvm.memcpy.p0.p0.i64(ptr noundef nonnull align 8 dereferenceable(12) %.sroa.0, ptr noundef nonnull align 8 dereferenceable(12) %2, i64 12, i1 false), !tbaa.struct !4
  %.sroa.5.0..sroa_idx = getelementptr inbounds nuw i8, ptr %2, i64 12
  %.sroa.5.0.copyload = load i32, ptr %.sroa.5.0..sroa_idx, align 4, !tbaa !8
  %.sroa.5.0.copyload.fr = freeze i32 %.sroa.5.0.copyload
  %.sroa.7.0..sroa_idx = getelementptr inbounds nuw i8, ptr %2, i64 16
  call void @llvm.memcpy.p0.p0.i64(ptr noundef nonnull align 8 dereferenceable(40) %.sroa.7, ptr noundef nonnull align 8 dereferenceable(40) %.sroa.7.0..sroa_idx, i64 40, i1 false), !tbaa.struct !16
  %8 = icmp eq i32 %.sroa.5.0.copyload.fr, 0
  br i1 %8, label %.thread, label %9

.thread:                                          ; preds = %6, %7
  br label %9

9:                                                ; preds = %7, %.thread
  %10 = phi i32 [ 89, %.thread ], [ %.sroa.5.0.copyload.fr, %7 ]
  store ptr null, ptr %0, align 8, !tbaa !17
  call void @reftable_buf_reset(ptr noundef nonnull %4) #16
  %11 = call i32 @reftable_buf_addstr(ptr noundef nonnull %4, ptr noundef %1) #16
  %12 = icmp slt i32 %11, 0
  br i1 %12, label %27, label %13

13:                                               ; preds = %9
  %14 = call i32 @reftable_buf_addstr(ptr noundef nonnull %4, ptr noundef nonnull @.str) #16
  %15 = icmp slt i32 %14, 0
  br i1 %15, label %27, label %16

16:                                               ; preds = %13
  %17 = call ptr @reftable_buf_detach(ptr noundef nonnull %4) #16
  %18 = getelementptr inbounds nuw i8, ptr %5, i64 144
  store ptr %17, ptr %18, align 8, !tbaa !19
  %19 = getelementptr inbounds nuw i8, ptr %5, i64 152
  store i32 -1, ptr %19, align 8, !tbaa !28
  %20 = getelementptr inbounds nuw i8, ptr %5, i64 168
  call void @llvm.memcpy.p0.p0.i64(ptr noundef nonnull align 8 dereferenceable(12) %20, ptr noundef nonnull align 8 dereferenceable(12) %.sroa.0, i64 12, i1 false), !tbaa.struct !4
  %.sroa.5.0..sroa_idx11 = getelementptr inbounds nuw i8, ptr %5, i64 180
  store i32 %10, ptr %.sroa.5.0..sroa_idx11, align 4, !tbaa !8
  %.sroa.7.0..sroa_idx13 = getelementptr inbounds nuw i8, ptr %5, i64 184
  call void @llvm.memcpy.p0.p0.i64(ptr noundef nonnull align 8 dereferenceable(40) %.sroa.7.0..sroa_idx13, ptr noundef nonnull align 8 dereferenceable(40) %.sroa.7, i64 40, i1 false), !tbaa.struct !16
  %21 = call ptr @reftable_strdup(ptr noundef %1) #16
  %22 = getelementptr inbounds nuw i8, ptr %5, i64 160
  store ptr %21, ptr %22, align 8, !tbaa !29
  %.not27 = icmp eq ptr %21, null
  br i1 %.not27, label %27, label %23

23:                                               ; preds = %16
  %24 = call fastcc i32 @reftable_stack_reload_maybe_reuse(ptr noundef nonnull %5, i32 noundef 1)
  %25 = icmp slt i32 %24, 0
  br i1 %25, label %27, label %26

26:                                               ; preds = %23
  store ptr %5, ptr %0, align 8, !tbaa !17
  br label %28

27:                                               ; preds = %9, %13, %23, %3, %16
  %.0.ph = phi i32 [ -13, %16 ], [ -13, %3 ], [ %24, %23 ], [ %14, %13 ], [ %11, %9 ]
  call void @reftable_stack_destroy(ptr noundef %5)
  br label %28

28:                                               ; preds = %26, %27
  %.032 = phi i32 [ %.0.ph, %27 ], [ 0, %26 ]
  call void @llvm.lifetime.end.p0(i64 12, ptr nonnull %.sroa.0)
  call void @llvm.lifetime.end.p0(i64 40, ptr nonnull %.sroa.7)
  call void @llvm.lifetime.end.p0(i64 24, ptr nonnull %4) #16
  ret i32 %.032
}